; Function Attrs: mustprogress uwtable
define hidden void @_ZN4cvc58internal6theory11quantifiers5ieval13InstEvaluator8resetAllEb(ptr noundef nonnull align 8 dereferenceable(1040) %this, i1 noundef zeroext %isSoft) local_unnamed_addr #3 align 2 {
entry:
  %d_state = getelementptr inbounds i8, ptr %this, i64 72
  %call = tail call noundef zeroext i1 @_ZNK4cvc58internal6theory11quantifiers5ieval5State14hasInitializedEv(ptr noundef nonnull align 8 dereferenceable(424) %d_state)
  br i1 %call, label %if.end, label %return

if.end:                                           ; preds = %entry
  %d_context = getelementptr inbounds i8, ptr %this, i64 16
  %cond = zext i1 %isSoft to i32
  tail call void @_ZN4cvc57context7Context5poptoEj(ptr noundef nonnull align 8 dereferenceable(48) %d_context, i32 noundef %cond)
  br label %return

return:                                           ; preds = %entry, %if.end
  ret void
}